target datalayout = "e-m:e-p270:32:32-p271:32:32-p272:64:64-i64:64-i128:128-f80:128-n8:16:32:64-S128"
target triple = "x86_64-pc-linux-gnu"

%struct.moveType = type { i32, i32, i32, i32 }
%struct.ThreadData = type { [4 x i32], i32, i8, [4 x [4 x i16]], i32, %struct.pos, i8, [50 x [4 x i16]], [13 x %struct.WinnersType], [14 x %struct.moveType], [50 x %struct.moveType], [50 x %struct.moveType], double, i32, i32, [8192 x %struct.relRanksType], ptr, %class.Moves }
%struct.pos = type { [4 x [4 x i16]], [4 x i16], [4 x [4 x i8]], [4 x i32], [50 x [4 x i16]], [50 x i32], [50 x %struct.moveType], i32, i32, [4 x %struct.highCardType], [4 x %struct.highCardType] }
%struct.highCardType = type { i32, i32 }
%struct.WinnersType = type { i32, [4 x %struct.WinnerEntryType] }
%struct.WinnerEntryType = type { i32, i32, i32, i32, i32 }
%struct.relRanksType = type { [15 x [4 x %struct.absRankType]] }
%struct.absRankType = type { i8, i8 }
%class.Moves = type { i32, i32, i32, i32, i32, i32, i32, i32, i32, [13 x %"struct.Moves::trackType"], ptr, [13 x [4 x %struct.movePlyType]], ptr, [13 x [4 x i32]], [13 x %"class.std::__cxx11::basic_string"], [13 x [4 x %"struct.Moves::moveStatType"]], [13 x [4 x %"struct.Moves::moveStatType"]], [13 x [4 x %"struct.Moves::moveStatsType"]], [13 x [4 x %"struct.Moves::moveStatsType"]], %"struct.Moves::moveStatsType", %"struct.Moves::moveStatsType", [16 x { i64, i64 }] }
%"struct.Moves::trackType" = type { i32, i32, [4 x i32], [4 x i32], %struct.trickDataType, [4 x %struct.extCard], [4 x i32], [4 x [4 x i32]], [4 x i32] }
%struct.trickDataType = type { [4 x i32], i32, i32, i32, i32, i32 }
%struct.extCard = type { i32, i32, i32 }
%struct.movePlyType = type { [14 x %struct.moveType], i32, i32 }
%"class.std::__cxx11::basic_string" = type { %"struct.std::__cxx11::basic_string<char>::_Alloc_hider", i64, %union.anon }
%"struct.std::__cxx11::basic_string<char>::_Alloc_hider" = type { ptr }
%union.anon = type { i64, [8 x i8] }
%"struct.Moves::moveStatType" = type { i32, i32, i32, i32 }
%"struct.Moves::moveStatsType" = type { i32, [13 x %"struct.Moves::moveStatType"] }
%struct.futureTricks = type { i32, i32, [13 x i32], [13 x i32], [13 x i32], [13 x i32] }
%struct.evalType = type { i32, [4 x i16] }

@AB_ptr_trace_list = global [4 x ptr] [ptr @_Z9ABsearch0P3posiiP10ThreadData, ptr @_Z9ABsearch1P3posiiP10ThreadData, ptr @_Z9ABsearch2P3posiiP10ThreadData, ptr @_Z9ABsearch3P3posiiP10ThreadData], align 16

; Function Attrs: mustprogress uwtable
define noundef i32 @_Z17AnalyseLaterBoardP10ThreadDataiPK8moveTypeiiP12futureTricks(ptr noundef %0, i32 noundef %1, ptr noundef %2, i32 noundef %3, i32 noundef %4, ptr noundef %5) #4 {
  %7 = alloca i32, align 4
  %8 = alloca ptr, align 8
  %9 = alloca i32, align 4
  %10 = alloca ptr, align 8
  %11 = alloca i32, align 4
  %12 = alloca i32, align 4
  %13 = alloca ptr, align 8
  %14 = alloca i32, align 4
  %15 = alloca i32, align 4
  %16 = alloca i32, align 4
  %17 = alloca i32, align 4
  %18 = alloca i32, align 4
  %19 = alloca [4 x i16], align 2
  %20 = alloca %struct.evalType, align 4
  %21 = alloca { i64, i32 }, align 8
  %22 = alloca i32, align 4
  %23 = alloca i32, align 4
  %24 = alloca i32, align 4
  store ptr %0, ptr %8, align 8
  store i32 %1, ptr %9, align 4
  store ptr %2, ptr %10, align 8
  store i32 %3, ptr %11, align 4
  store i32 %4, ptr %12, align 4
  store ptr %5, ptr %13, align 8
  %25 = load ptr, ptr %8, align 8
  %26 = getelementptr inbounds nuw %struct.ThreadData, ptr %25, i32 0, i32 1
  %27 = load i32, ptr %26, align 8
  %28 = add nsw i32 %27, -1
  store i32 %28, ptr %26, align 8
  store i32 %28, ptr %14, align 4
  %29 = load i32, ptr %14, align 4
  %30 = add nsw i32 %29, 4
  store i32 %30, ptr %15, align 4
  %31 = load i32, ptr %14, align 4
  %32 = add nsw i32 %31, 3
  %33 = ashr i32 %32, 2
  store i32 %33, ptr %16, align 4
  %34 = load i32, ptr %14, align 4
  %35 = sub nsw i32 48, %34
  %36 = srem i32 %35, 4
  store i32 %36, ptr %17, align 4
  %37 = load ptr, ptr %8, align 8
  %38 = getelementptr inbounds nuw %struct.ThreadData, ptr %37, i32 0, i32 14
  store i32 0, ptr %38, align 4
  %39 = load ptr, ptr %8, align 8
  %40 = getelementptr inbounds nuw %struct.ThreadData, ptr %39, i32 0, i32 6
  store i8 1, ptr %40, align 4
  %41 = load i32, ptr %9, align 4
  %42 = load i32, ptr %17, align 4
  %43 = add nsw i32 %41, %42
  %44 = and i32 %43, 3
  store i32 %44, ptr %18, align 4
  %45 = load i32, ptr %18, align 4
  %46 = icmp eq i32 %45, 0
  br i1 %46, label %50, label %47

47:                                               ; preds = %6
  %48 = load i32, ptr %18, align 4
  %49 = icmp eq i32 %48, 2
  br i1 %49, label %50, label %63

50:                                               ; preds = %47, %6
  %51 = load ptr, ptr %8, align 8
  %52 = getelementptr inbounds nuw %struct.ThreadData, ptr %51, i32 0, i32 0
  %53 = getelementptr inbounds [4 x i32], ptr %52, i64 0, i64 0
  store i32 1, ptr %53, align 8
  %54 = load ptr, ptr %8, align 8
  %55 = getelementptr inbounds nuw %struct.ThreadData, ptr %54, i32 0, i32 0
  %56 = getelementptr inbounds [4 x i32], ptr %55, i64 0, i64 1
  store i32 0, ptr %56, align 4
  %57 = load ptr, ptr %8, align 8
  %58 = getelementptr inbounds nuw %struct.ThreadData, ptr %57, i32 0, i32 0
  %59 = getelementptr inbounds [4 x i32], ptr %58, i64 0, i64 2
  store i32 1, ptr %59, align 8
  %60 = load ptr, ptr %8, align 8
  %61 = getelementptr inbounds nuw %struct.ThreadData, ptr %60, i32 0, i32 0
  %62 = getelementptr inbounds [4 x i32], ptr %61, i64 0, i64 3
  store i32 0, ptr %62, align 4
  br label %76

63:                                               ; preds = %47
  %64 = load ptr, ptr %8, align 8
  %65 = getelementptr inbounds nuw %struct.ThreadData, ptr %64, i32 0, i32 0
  %66 = getelementptr inbounds [4 x i32], ptr %65, i64 0, i64 0
  store i32 0, ptr %66, align 8
  %67 = load ptr, ptr %8, align 8
  %68 = getelementptr inbounds nuw %struct.ThreadData, ptr %67, i32 0, i32 0
  %69 = getelementptr inbounds [4 x i32], ptr %68, i64 0, i64 1
  store i32 1, ptr %69, align 4
  %70 = load ptr, ptr %8, align 8
  %71 = getelementptr inbounds nuw %struct.ThreadData, ptr %70, i32 0, i32 0
  %72 = getelementptr inbounds [4 x i32], ptr %71, i64 0, i64 2
  store i32 0, ptr %72, align 8
  %73 = load ptr, ptr %8, align 8
  %74 = getelementptr inbounds nuw %struct.ThreadData, ptr %73, i32 0, i32 0
  %75 = getelementptr inbounds [4 x i32], ptr %74, i64 0, i64 3
  store i32 1, ptr %75, align 4
  br label %76

76:                                               ; preds = %63, %50
  %77 = load i32, ptr %17, align 4
  %78 = icmp eq i32 %77, 0
  br i1 %78, label %79, label %92

79:                                               ; preds = %76
  %80 = load ptr, ptr %8, align 8
  %81 = getelementptr inbounds nuw %struct.ThreadData, ptr %80, i32 0, i32 17
  %82 = load ptr, ptr %10, align 8
  %83 = load i32, ptr %16, align 4
  %84 = add nsw i32 %83, 1
  call void @_ZN5Moves12MakeSpecificERK8moveTypeii(ptr noundef nonnull align 8 dereferenceable(39992) %81, ptr noundef nonnull align 4 dereferenceable(16) %82, i32 noundef %84, i32 noundef 3)
  %85 = load ptr, ptr %8, align 8
  %86 = getelementptr inbounds nuw %struct.ThreadData, ptr %85, i32 0, i32 5
  %87 = getelementptr inbounds [4 x i16], ptr %19, i64 0, i64 0
  %88 = load i32, ptr %14, align 4
  %89 = add nsw i32 %88, 1
  %90 = load ptr, ptr %10, align 8
  %91 = load ptr, ptr %8, align 8
  call void @_Z5Make3P3posPtiPK8moveTypeP10ThreadData(ptr noundef %86, ptr noundef %87, i32 noundef %89, ptr noundef %90, ptr noundef %91)
  br label %130

92:                                               ; preds = %76
  %93 = load i32, ptr %17, align 4
  %94 = icmp eq i32 %93, 1
  br i1 %94, label %95, label %105

95:                                               ; preds = %92
  %96 = load ptr, ptr %8, align 8
  %97 = getelementptr inbounds nuw %struct.ThreadData, ptr %96, i32 0, i32 17
  %98 = load ptr, ptr %10, align 8
  %99 = load i32, ptr %16, align 4
  call void @_ZN5Moves12MakeSpecificERK8moveTypeii(ptr noundef nonnull align 8 dereferenceable(39992) %97, ptr noundef nonnull align 4 dereferenceable(16) %98, i32 noundef %99, i32 noundef 0)
  %100 = load ptr, ptr %8, align 8
  %101 = getelementptr inbounds nuw %struct.ThreadData, ptr %100, i32 0, i32 5
  %102 = load i32, ptr %14, align 4
  %103 = add nsw i32 %102, 1
  %104 = load ptr, ptr %10, align 8
  call void @_Z5Make0P3posiPK8moveType(ptr noundef %101, i32 noundef %103, ptr noundef %104)
  br label %129

105:                                              ; preds = %92
  %106 = load i32, ptr %17, align 4
  %107 = icmp eq i32 %106, 2
  br i1 %107, label %108, label %118

108:                                              ; preds = %105
  %109 = load ptr, ptr %8, align 8
  %110 = getelementptr inbounds nuw %struct.ThreadData, ptr %109, i32 0, i32 17
  %111 = load ptr, ptr %10, align 8
  %112 = load i32, ptr %16, align 4
  call void @_ZN5Moves12MakeSpecificERK8moveTypeii(ptr noundef nonnull align 8 dereferenceable(39992) %110, ptr noundef nonnull align 4 dereferenceable(16) %111, i32 noundef %112, i32 noundef 1)
  %113 = load ptr, ptr %8, align 8
  %114 = getelementptr inbounds nuw %struct.ThreadData, ptr %113, i32 0, i32 5
  %115 = load i32, ptr %14, align 4
  %116 = add nsw i32 %115, 1
  %117 = load ptr, ptr %10, align 8
  call void @_Z5Make1P3posiPK8moveType(ptr noundef %114, i32 noundef %116, ptr noundef %117)
  br label %128

118:                                              ; preds = %105
  %119 = load ptr, ptr %8, align 8
  %120 = getelementptr inbounds nuw %struct.ThreadData, ptr %119, i32 0, i32 17
  %121 = load ptr, ptr %10, align 8
  %122 = load i32, ptr %16, align 4
  call void @_ZN5Moves12MakeSpecificERK8moveTypeii(ptr noundef nonnull align 8 dereferenceable(39992) %120, ptr noundef nonnull align 4 dereferenceable(16) %121, i32 noundef %122, i32 noundef 2)
  %123 = load ptr, ptr %8, align 8
  %124 = getelementptr inbounds nuw %struct.ThreadData, ptr %123, i32 0, i32 5
  %125 = load i32, ptr %14, align 4
  %126 = add nsw i32 %125, 1
  %127 = load ptr, ptr %10, align 8
  call void @_Z5Make2P3posiPK8moveType(ptr noundef %124, i32 noundef %126, ptr noundef %127)
  br label %128

128:                                              ; preds = %118, %108
  br label %129

129:                                              ; preds = %128, %95
  br label %130

130:                                              ; preds = %129, %79
  %131 = load i32, ptr %15, align 4
  %132 = icmp sle i32 %131, 4
  br i1 %132, label %133, label %148

133:                                              ; preds = %130
  %134 = load ptr, ptr %8, align 8
  %135 = getelementptr inbounds nuw %struct.ThreadData, ptr %134, i32 0, i32 5
  %136 = load ptr, ptr %8, align 8
  %137 = getelementptr inbounds nuw %struct.ThreadData, ptr %136, i32 0, i32 4
  %138 = load i32, ptr %137, align 8
  %139 = load ptr, ptr %8, align 8
  %140 = call { i64, i32 } @_Z8EvaluatePK3posiPK10ThreadData(ptr noundef %135, i32 noundef %138, ptr noundef %139)
  store { i64, i32 } %140, ptr %21, align 8
  call void @llvm.memcpy.p0.p0.i64(ptr align 4 %20, ptr align 8 %21, i64 12, i1 false)
  %141 = getelementptr inbounds nuw %struct.evalType, ptr %20, i32 0, i32 0
  %142 = load i32, ptr %141, align 4
  %143 = load ptr, ptr %13, align 8
  %144 = getelementptr inbounds nuw %struct.futureTricks, ptr %143, i32 0, i32 5
  %145 = getelementptr inbounds [13 x i32], ptr %144, i64 0, i64 0
  store i32 %142, ptr %145, align 4
  %146 = load ptr, ptr %13, align 8
  %147 = getelementptr inbounds nuw %struct.futureTricks, ptr %146, i32 0, i32 0
  store i32 0, ptr %147, align 4
  store i32 1, ptr %7, align 4
  br label %208

148:                                              ; preds = %130
  %149 = load i32, ptr %11, align 4
  store i32 %149, ptr %22, align 4
  %150 = load i32, ptr %12, align 4
  %151 = icmp eq i32 %150, 0
  br i1 %151, label %152, label %154

152:                                              ; preds = %148
  %153 = load i32, ptr %11, align 4
  store i32 %153, ptr %23, align 4
  store i32 13, ptr %24, align 4
  br label %156

154:                                              ; preds = %148
  store i32 0, ptr %23, align 4
  %155 = load i32, ptr %11, align 4
  store i32 %155, ptr %24, align 4
  br label %156

156:                                              ; preds = %154, %152
  br label %157

157:                                              ; preds = %183, %156
  %158 = load ptr, ptr %8, align 8
  call void @_Z14ResetBestMovesP10ThreadData(ptr noundef %158)
  %159 = load i32, ptr %17, align 4
  %160 = sext i32 %159 to i64
  %161 = getelementptr inbounds [4 x ptr], ptr @AB_ptr_trace_list, i64 0, i64 %160
  %162 = load ptr, ptr %161, align 8
  %163 = load ptr, ptr %8, align 8
  %164 = getelementptr inbounds nuw %struct.ThreadData, ptr %163, i32 0, i32 5
  %165 = load i32, ptr %22, align 4
  %166 = load i32, ptr %14, align 4
  %167 = load ptr, ptr %8, align 8
  %168 = call noundef zeroext i1 %162(ptr noundef %164, i32 noundef %165, i32 noundef %166, ptr noundef %167)
  %169 = load ptr, ptr %8, align 8
  %170 = getelementptr inbounds nuw %struct.ThreadData, ptr %169, i32 0, i32 2
  %171 = zext i1 %168 to i8
  store i8 %171, ptr %170, align 4
  %172 = load ptr, ptr %8, align 8
  %173 = getelementptr inbounds nuw %struct.ThreadData, ptr %172, i32 0, i32 2
  %174 = load i8, ptr %173, align 4
  %175 = trunc i8 %174 to i1
  br i1 %175, label %176, label %179

176:                                              ; preds = %157
  %177 = load i32, ptr %22, align 4
  %178 = add nsw i32 %177, 1
  store i32 %178, ptr %22, align 4
  store i32 %177, ptr %23, align 4
  br label %182

179:                                              ; preds = %157
  %180 = load i32, ptr %22, align 4
  %181 = add nsw i32 %180, -1
  store i32 %181, ptr %22, align 4
  store i32 %181, ptr %24, align 4
  br label %182

182:                                              ; preds = %179, %176
  br label %183

183:                                              ; preds = %182
  %184 = load i32, ptr %23, align 4
  %185 = load i32, ptr %24, align 4
  %186 = icmp slt i32 %184, %185
  br i1 %186, label %157, label %187, !llvm.loop !36

187:                                              ; preds = %183
  %188 = load i32, ptr %23, align 4
  %189 = load ptr, ptr %13, align 8
  %190 = getelementptr inbounds nuw %struct.futureTricks, ptr %189, i32 0, i32 5
  %191 = getelementptr inbounds [13 x i32], ptr %190, i64 0, i64 0
  store i32 %188, ptr %191, align 4
  %192 = load ptr, ptr %8, align 8
  %193 = getelementptr inbounds nuw %struct.ThreadData, ptr %192, i32 0, i32 14
  %194 = load i32, ptr %193, align 4
  %195 = load ptr, ptr %13, align 8
  %196 = getelementptr inbounds nuw %struct.futureTricks, ptr %195, i32 0, i32 0
  store i32 %194, ptr %196, align 4
  %197 = load ptr, ptr %8, align 8
  %198 = getelementptr inbounds nuw %struct.ThreadData, ptr %197, i32 0, i32 16
  %199 = load ptr, ptr %198, align 8
  %200 = load ptr, ptr %199, align 8
  %201 = getelementptr inbounds ptr, ptr %200, i64 8
  %202 = load ptr, ptr %201, align 8
  %203 = call noundef double %202(ptr noundef nonnull align 8 dereferenceable(8) %199)
  %204 = call noundef double @_Z16ThreadMemoryUsedv()
  %205 = fadd double %203, %204
  %206 = load ptr, ptr %8, align 8
  %207 = getelementptr inbounds nuw %struct.ThreadData, ptr %206, i32 0, i32 12
  store double %205, ptr %207, align 8
  store i32 1, ptr %7, align 4
  br label %208

208:                                              ; preds = %187, %133
  %209 = load i32, ptr %7, align 4
  ret i32 %209
}