; Function Attrs: mustprogress uwtable
define noundef i32 @_Z17AnalyseLaterBoardP10ThreadDataiPK8moveTypeiiP12futureTricks(ptr noundef initializes((0, 16), (1604, 1605), (4940, 4944)) %0, i32 noundef %1, ptr noundef %2, i32 noundef %3, i32 noundef %4, ptr noundef writeonly captures(none) %5) local_unnamed_addr #3 {
  %7 = alloca [4 x i16], align 2
  %8 = getelementptr inbounds nuw i8, ptr %0, i64 16
  %9 = load i32, ptr %8, align 8
  %10 = add nsw i32 %9, -1
  store i32 %10, ptr %8, align 8
  %11 = add nsw i32 %9, 2
  %12 = ashr i32 %11, 2
  %13 = sub nsw i32 49, %9
  %14 = srem i32 %13, 4
  %15 = getelementptr inbounds nuw i8, ptr %0, i64 4940
  store i32 0, ptr %15, align 4
  %16 = getelementptr inbounds nuw i8, ptr %0, i64 1604
  store i8 1, ptr %16, align 4
  %17 = add nsw i32 %14, %1
  %18 = and i32 %17, 1
  %spec.select = xor i32 %18, 1
  store i32 %spec.select, ptr %0, align 8
  %19 = getelementptr inbounds nuw i8, ptr %0, i64 4
  store i32 %18, ptr %19, align 4
  %20 = getelementptr inbounds nuw i8, ptr %0, i64 8
  store i32 %spec.select, ptr %20, align 8
  %21 = getelementptr inbounds nuw i8, ptr %0, i64 12
  store i32 %18, ptr %21, align 4
  %22 = getelementptr inbounds nuw i8, ptr %0, i64 987992
  switch i32 %14, label %30 [
    i32 0, label %23
    i32 1, label %26
    i32 2, label %28
  ]

23:                                               ; preds = %6
  %24 = add nsw i32 %12, 1
  tail call void @_ZN5Moves12MakeSpecificERK8moveTypeii(ptr noundef nonnull align 8 dereferenceable(39992) %22, ptr noundef nonnull align 4 dereferenceable(16) %2, i32 noundef %24, i32 noundef 3)
  %25 = getelementptr inbounds nuw i8, ptr %0, i64 60
  call void @_Z5Make3P3posPtiPK8moveTypeP10ThreadData(ptr noundef nonnull %25, ptr noundef nonnull %7, i32 noundef %9, ptr noundef nonnull %2, ptr noundef nonnull %0)
  br label %32

26:                                               ; preds = %6
  tail call void @_ZN5Moves12MakeSpecificERK8moveTypeii(ptr noundef nonnull align 8 dereferenceable(39992) %22, ptr noundef nonnull align 4 dereferenceable(16) %2, i32 noundef %12, i32 noundef 0)
  %27 = getelementptr inbounds nuw i8, ptr %0, i64 60
  tail call void @_Z5Make0P3posiPK8moveType(ptr noundef nonnull %27, i32 noundef %9, ptr noundef nonnull %2)
  br label %32

28:                                               ; preds = %6
  tail call void @_ZN5Moves12MakeSpecificERK8moveTypeii(ptr noundef nonnull align 8 dereferenceable(39992) %22, ptr noundef nonnull align 4 dereferenceable(16) %2, i32 noundef %12, i32 noundef 1)
  %29 = getelementptr inbounds nuw i8, ptr %0, i64 60
  tail call void @_Z5Make1P3posiPK8moveType(ptr noundef nonnull %29, i32 noundef %9, ptr noundef nonnull %2)
  br label %32

30:                                               ; preds = %6
  tail call void @_ZN5Moves12MakeSpecificERK8moveTypeii(ptr noundef nonnull align 8 dereferenceable(39992) %22, ptr noundef nonnull align 4 dereferenceable(16) %2, i32 noundef %12, i32 noundef 2)
  %31 = getelementptr inbounds nuw i8, ptr %0, i64 60
  tail call void @_Z5Make2P3posiPK8moveType(ptr noundef nonnull %31, i32 noundef %9, ptr noundef nonnull %2)
  br label %32

32:                                               ; preds = %26, %30, %28, %23
  %33 = icmp slt i32 %9, 2
  br i1 %33, label %34, label %40

34:                                               ; preds = %32
  %35 = getelementptr inbounds nuw i8, ptr %0, i64 60
  %36 = getelementptr inbounds nuw i8, ptr %0, i64 56
  %37 = load i32, ptr %36, align 8
  %38 = call { i64, i32 } @_Z8EvaluatePK3posiPK10ThreadData(ptr noundef nonnull %35, i32 noundef %37, ptr noundef nonnull %0)
  %.fca.0.extract = extractvalue { i64, i32 } %38, 0
  %.sroa.07.0.extract.trunc = trunc i64 %.fca.0.extract to i32
  %39 = getelementptr inbounds nuw i8, ptr %5, i64 164
  store i32 %.sroa.07.0.extract.trunc, ptr %39, align 4
  store i32 0, ptr %5, align 4
  br label %65

40:                                               ; preds = %32
  %41 = icmp eq i32 %4, 0
  %. = select i1 %41, i32 %3, i32 0
  %.84 = select i1 %41, i32 13, i32 %3
  %42 = sext i32 %14 to i64
  %43 = getelementptr inbounds [4 x ptr], ptr @AB_ptr_trace_list, i64 0, i64 %42
  %44 = getelementptr inbounds nuw i8, ptr %0, i64 60
  %45 = getelementptr inbounds nuw i8, ptr %0, i64 20
  br label %46

46:                                               ; preds = %46, %40
  %.080 = phi i32 [ %3, %40 ], [ %.181, %46 ]
  %.178 = phi i32 [ %., %40 ], [ %.279, %46 ]
  %.1 = phi i32 [ %.84, %40 ], [ %.2, %46 ]
  call void @_Z14ResetBestMovesP10ThreadData(ptr noundef nonnull %0)
  %47 = load ptr, ptr %43, align 8
  %48 = call noundef zeroext i1 %47(ptr noundef nonnull %44, i32 noundef %.080, i32 noundef %10, ptr noundef nonnull %0)
  %49 = zext i1 %48 to i8
  store i8 %49, ptr %45, align 4
  %50 = add nsw i32 %.080, 1
  %51 = add nsw i32 %.080, -1
  %.181 = select i1 %48, i32 %50, i32 %51
  %.279 = select i1 %48, i32 %.080, i32 %.178
  %.2 = select i1 %48, i32 %.1, i32 %51
  %52 = icmp slt i32 %.279, %.2
  br i1 %52, label %46, label %53, !llvm.loop !36

53:                                               ; preds = %46
  %54 = getelementptr inbounds nuw i8, ptr %5, i64 164
  store i32 %.279, ptr %54, align 4
  %55 = load i32, ptr %15, align 4
  store i32 %55, ptr %5, align 4
  %56 = getelementptr inbounds nuw i8, ptr %0, i64 987984
  %57 = load ptr, ptr %56, align 8
  %58 = load ptr, ptr %57, align 8
  %59 = getelementptr inbounds nuw i8, ptr %58, i64 64
  %60 = load ptr, ptr %59, align 8
  %61 = call noundef double %60(ptr noundef nonnull align 8 dereferenceable(8) %57)
  %62 = call noundef double @_Z16ThreadMemoryUsedv()
  %63 = fadd double %61, %62
  %64 = getelementptr inbounds nuw i8, ptr %0, i64 4928
  store double %63, ptr %64, align 8
  br label %65

65:                                               ; preds = %53, %34
  ret i32 1
}